; Function Attrs: nounwind uwtable
define dso_local ptr @tuplehash_lookup(ptr noundef readonly captures(none) %0, ptr noundef %1) local_unnamed_addr #0 {
  %3 = alloca i8, align 1
  %4 = alloca i8, align 1
  %5 = getelementptr i8, ptr %0, i64 40
  %.val = load ptr, ptr %5, align 8
  call void @llvm.lifetime.start.p0(i64 1, ptr nonnull %4) #15
  %6 = icmp eq ptr %1, null
  %7 = getelementptr inbounds nuw i8, ptr %.val, i64 96
  %8 = load ptr, ptr %7, align 8
  %9 = getelementptr inbounds nuw i8, ptr %8, i64 16
  br i1 %6, label %10, label %13

10:                                               ; preds = %2
  %11 = getelementptr inbounds nuw i8, ptr %.val, i64 72
  %12 = load ptr, ptr %11, align 8
  store ptr %12, ptr %9, align 8
  br label %TupleHashTableHash_internal.exit

13:                                               ; preds = %2
  %14 = getelementptr inbounds nuw i8, ptr %.val, i64 64
  %15 = load ptr, ptr %14, align 8
  store ptr %15, ptr %9, align 8
  %16 = tail call ptr @ExecStoreMinimalTuple(ptr noundef nonnull %1, ptr noundef %15, i1 noundef zeroext false) #15
  br label %TupleHashTableHash_internal.exit

TupleHashTableHash_internal.exit:                 ; preds = %10, %13
  %.sink.i = phi i64 [ 24, %13 ], [ 80, %10 ]
  %17 = getelementptr inbounds nuw i8, ptr %.val, i64 %.sink.i
  %18 = load ptr, ptr %17, align 8
  %19 = load ptr, ptr %7, align 8
  %20 = getelementptr inbounds nuw i8, ptr %18, i64 32
  %21 = load ptr, ptr %20, align 8
  %22 = call i64 %21(ptr noundef %18, ptr noundef %19, ptr noundef nonnull %4) #15
  %.0.i = trunc i64 %22 to i32
  %23 = lshr i32 %.0.i, 16
  %24 = xor i32 %23, %.0.i
  %25 = mul i32 %24, -2048144789
  %26 = lshr i32 %25, 13
  %27 = xor i32 %26, %25
  %28 = mul i32 %27, -1028477387
  %29 = lshr i32 %28, 16
  %30 = xor i32 %29, %28
  call void @llvm.lifetime.end.p0(i64 1, ptr nonnull %4) #15
  %31 = getelementptr i8, ptr %0, i64 12
  %.val.i = load i32, ptr %31, align 4
  %32 = and i32 %30, %.val.i
  %33 = getelementptr inbounds nuw i8, ptr %0, i64 24
  %34 = load ptr, ptr %33, align 8
  %35 = zext i32 %32 to i64
  %36 = getelementptr inbounds nuw %struct.TupleHashEntryData, ptr %34, i64 %35
  %37 = getelementptr inbounds nuw i8, ptr %36, i64 16
  %38 = load i32, ptr %37, align 8
  %39 = icmp eq i32 %38, 0
  br i1 %39, label %tuplehash_lookup_hash_internal.exit, label %.lr.ph.i

.lr.ph.i:                                         ; preds = %TupleHashTableHash_internal.exit, %68
  %40 = phi ptr [ %69, %68 ], [ %34, %TupleHashTableHash_internal.exit ]
  %.val1912.i = phi i32 [ %.val19.i, %68 ], [ %.val.i, %TupleHashTableHash_internal.exit ]
  %41 = phi ptr [ %73, %68 ], [ %36, %TupleHashTableHash_internal.exit ]
  %.0178.i = phi i32 [ %71, %68 ], [ %32, %TupleHashTableHash_internal.exit ]
  %42 = getelementptr inbounds nuw i8, ptr %41, i64 20
  %43 = load i32, ptr %42, align 4
  %44 = icmp eq i32 %30, %43
  br i1 %44, label %45, label %68

45:                                               ; preds = %.lr.ph.i
  %46 = load ptr, ptr %41, align 8
  %.val20.i = load ptr, ptr %5, align 8
  %47 = getelementptr inbounds nuw i8, ptr %.val20.i, i64 96
  %48 = load ptr, ptr %47, align 8
  %49 = getelementptr inbounds nuw i8, ptr %.val20.i, i64 64
  %50 = load ptr, ptr %49, align 8
  %51 = call ptr @ExecStoreMinimalTuple(ptr noundef %46, ptr noundef %50, i1 noundef zeroext false) #15
  %52 = getelementptr inbounds nuw i8, ptr %.val20.i, i64 72
  %53 = load ptr, ptr %52, align 8
  %54 = getelementptr inbounds nuw i8, ptr %48, i64 16
  store ptr %53, ptr %54, align 8
  %55 = getelementptr inbounds nuw i8, ptr %48, i64 24
  store ptr %50, ptr %55, align 8
  %56 = getelementptr inbounds nuw i8, ptr %.val20.i, i64 88
  %57 = load ptr, ptr %56, align 8
  call void @llvm.lifetime.start.p0(i64 1, ptr nonnull %3) #15
  %58 = icmp eq ptr %57, null
  br i1 %58, label %TupleHashTableMatch.exit.thread.i, label %TupleHashTableMatch.exit.i

TupleHashTableMatch.exit.thread.i:                ; preds = %45
  call void @llvm.lifetime.end.p0(i64 1, ptr nonnull %3) #15
  %59 = getelementptr inbounds nuw i8, ptr %48, i64 40
  %60 = load ptr, ptr %59, align 8
  call void @MemoryContextReset(ptr noundef %60) #15
  br label %tuplehash_lookup_hash_internal.exit

TupleHashTableMatch.exit.i:                       ; preds = %45
  %61 = getelementptr inbounds nuw i8, ptr %48, i64 40
  %62 = load ptr, ptr %61, align 8
  %63 = load ptr, ptr @CurrentMemoryContext, align 8
  store ptr %62, ptr @CurrentMemoryContext, align 8
  %64 = getelementptr inbounds nuw i8, ptr %57, i64 32
  %65 = load ptr, ptr %64, align 8
  %66 = call i64 %65(ptr noundef nonnull %57, ptr noundef nonnull %48, ptr noundef nonnull %3) #15
  store ptr %63, ptr @CurrentMemoryContext, align 8
  %.not.i = icmp eq i64 %66, 0
  call void @llvm.lifetime.end.p0(i64 1, ptr nonnull %3) #15
  %67 = load ptr, ptr %61, align 8
  call void @MemoryContextReset(ptr noundef %67) #15
  br i1 %.not.i, label %TupleHashTableMatch.exit._crit_edge.i, label %tuplehash_lookup_hash_internal.exit

TupleHashTableMatch.exit._crit_edge.i:            ; preds = %TupleHashTableMatch.exit.i
  %.val19.pre.i = load i32, ptr %31, align 4
  %.pre.i = load ptr, ptr %33, align 8
  br label %68

68:                                               ; preds = %TupleHashTableMatch.exit._crit_edge.i, %.lr.ph.i
  %69 = phi ptr [ %.pre.i, %TupleHashTableMatch.exit._crit_edge.i ], [ %40, %.lr.ph.i ]
  %.val19.i = phi i32 [ %.val19.pre.i, %TupleHashTableMatch.exit._crit_edge.i ], [ %.val1912.i, %.lr.ph.i ]
  %70 = add i32 %.0178.i, 1
  %71 = and i32 %.val19.i, %70
  %72 = zext i32 %71 to i64
  %73 = getelementptr inbounds nuw %struct.TupleHashEntryData, ptr %69, i64 %72
  %74 = getelementptr inbounds nuw i8, ptr %73, i64 16
  %75 = load i32, ptr %74, align 8
  %76 = icmp eq i32 %75, 0
  br i1 %76, label %tuplehash_lookup_hash_internal.exit, label %.lr.ph.i

tuplehash_lookup_hash_internal.exit:              ; preds = %TupleHashTableMatch.exit.i, %68, %TupleHashTableHash_internal.exit, %TupleHashTableMatch.exit.thread.i
  %.1.ph.i = phi ptr [ %41, %TupleHashTableMatch.exit.thread.i ], [ null, %TupleHashTableHash_internal.exit ], [ null, %68 ], [ %41, %TupleHashTableMatch.exit.i ]
  ret ptr %.1.ph.i
}